target datalayout = "e-m:e-p270:32:32-p271:32:32-p272:64:64-i64:64-i128:128-f80:128-n8:16:32:64-S128"
target triple = "x86_64-pc-linux-gnu"

%struct._asn1_ctx_t = type { i32, i32, i8, ptr, ptr, ptr, ptr, ptr, %struct.anon, %struct.anon.2, %struct.anon.3, ptr }
%struct.anon = type { i32, i8, i8, i8, ptr, ptr, i32, i32, ptr, ptr, ptr, %union.anon }
%union.anon = type { %struct.anon.0 }
%struct.anon.0 = type { ptr }
%struct.anon.2 = type { ptr, ptr, ptr }
%struct.anon.3 = type { i32, i8, ptr, i32, i32, ptr, ptr, ptr, %union.anon.4 }
%union.anon.4 = type { %struct.anon.5 }
%struct.anon.5 = type { ptr }
%struct._packet_info = type { ptr, ptr, i32, i32, %struct.nstime_t, %struct.nstime_t, %struct.nstime_t, i8, ptr, ptr, ptr, ptr, %struct._address, %struct._address, %struct._address, %struct._address, %struct._address, %struct._address, i32, ptr, i8, [3 x i8], %struct.anon.7, i32, i32, i32, i32, ptr, i8, ptr, ptr, i16, i16, i32, i32, i16, i32, i32, ptr, ptr, ptr, i8, i8, i16, i16, i16, i32, i16, i16, ptr, ptr, ptr, ptr, ptr, i32, i32 }
%struct.nstime_t = type { i64, i32 }
%struct._address = type { i32, i32, ptr, ptr }
%struct.anon.7 = type { i8, [3 x i8] }
%struct._h225_packet_info = type { i32, i32, i32, i32, i32, %struct._e_guid_t, i8, i8, %struct.nstime_t, i8, i8, i8, i32, i16, [129 x i8], i8, [50 x i8] }
%struct._e_guid_t = type { i32, i16, i16, [8 x i8] }

@proto_h225 = internal global i32 0, align 4
@.str.193 = private unnamed_addr constant [10 x i8] c"<unknown>\00", align 1
@ett_h225_Setup_UUIE = internal global i32 0, align 4
@contains_faststart = internal global i8 0, align 1
@.str.1690 = private unnamed_addr constant [12 x i8] c"%s OLC (%s)\00", align 1
@.str.1691 = private unnamed_addr constant [3 x i8] c"%s\00", align 1

; Function Attrs: null_pointer_is_valid sspstrong uwtable
define internal void @h225_set_cs_type(ptr noundef %0, i32 noundef %1, i1 noundef zeroext %2) #0 {
  %4 = alloca ptr, align 8
  %5 = alloca i32, align 4
  %6 = alloca i8, align 1
  %7 = alloca [50 x i8], align 16
  store ptr %0, ptr %4, align 8
  store i32 %1, ptr %5, align 4
  %8 = zext i1 %2 to i8
  store i8 %8, ptr %6, align 1
  %9 = load ptr, ptr %4, align 8
  %10 = icmp eq ptr %9, null
  br i1 %10, label %11, label %12

11:                                               ; preds = %3
  br label %42

12:                                               ; preds = %3
  %13 = load i32, ptr %5, align 4
  %14 = load ptr, ptr %4, align 8
  %15 = getelementptr inbounds nuw %struct._h225_packet_info, ptr %14, i32 0, i32 1
  store i32 %13, ptr %15, align 4
  %16 = load i8, ptr %6, align 1, !range !23, !noundef !24
  %17 = trunc i8 %16 to i1
  br i1 %17, label %18, label %33

18:                                               ; preds = %12
  call void @llvm.lifetime.start.p0(i64 50, ptr %7) #11
  %19 = getelementptr inbounds [50 x i8], ptr %7, i64 0, i64 0
  %20 = load ptr, ptr %4, align 8
  %21 = getelementptr inbounds nuw %struct._h225_packet_info, ptr %20, i32 0, i32 1
  %22 = load i32, ptr %21, align 4
  %23 = call ptr @val_to_str_const(i32 noundef %22, ptr noundef @T_h323_message_body_vals, ptr noundef @.str.193)
  %24 = load ptr, ptr %4, align 8
  %25 = getelementptr inbounds nuw %struct._h225_packet_info, ptr %24, i32 0, i32 16
  %26 = getelementptr inbounds [50 x i8], ptr %25, i64 0, i64 0
  %27 = call i32 (ptr, i64, i32, i64, ptr, ...) @__snprintf_chk(ptr noundef %19, i64 noundef 50, i32 noundef 2, i64 noundef 50, ptr noundef @.str.1690, ptr noundef %23, ptr noundef %26)
  %28 = load ptr, ptr %4, align 8
  %29 = getelementptr inbounds nuw %struct._h225_packet_info, ptr %28, i32 0, i32 16
  %30 = getelementptr inbounds [50 x i8], ptr %29, i64 0, i64 0
  %31 = getelementptr inbounds [50 x i8], ptr %7, i64 0, i64 0
  %32 = call i64 @g_strlcpy(ptr noundef %30, ptr noundef %31, i64 noundef 50)
  call void @llvm.lifetime.end.p0(i64 50, ptr %7) #11
  br label %42

33:                                               ; preds = %12
  %34 = load ptr, ptr %4, align 8
  %35 = getelementptr inbounds nuw %struct._h225_packet_info, ptr %34, i32 0, i32 16
  %36 = getelementptr inbounds [50 x i8], ptr %35, i64 0, i64 0
  %37 = load ptr, ptr %4, align 8
  %38 = getelementptr inbounds nuw %struct._h225_packet_info, ptr %37, i32 0, i32 1
  %39 = load i32, ptr %38, align 4
  %40 = call ptr @val_to_str_const(i32 noundef %39, ptr noundef @T_h323_message_body_vals, ptr noundef @.str.193)
  %41 = call i32 (ptr, i64, i32, i64, ptr, ...) @__snprintf_chk(ptr noundef %36, i64 noundef 50, i32 noundef 2, i64 noundef 50, ptr noundef @.str.1691, ptr noundef %40)
  br label %42

42:                                               ; preds = %11, %33, %18
  ret void
}

; Function Attrs: null_pointer_is_valid sspstrong uwtable
define internal i32 @dissect_h225_Setup_UUIE(ptr noundef %0, i32 noundef %1, ptr noundef %2, ptr noundef %3, i32 noundef %4) #0 {
  %6 = alloca ptr, align 8
  %7 = alloca i32, align 4
  %8 = alloca ptr, align 8
  %9 = alloca ptr, align 8
  %10 = alloca i32, align 4
  %11 = alloca ptr, align 8
  store ptr %0, ptr %6, align 8
  store i32 %1, ptr %7, align 4
  store ptr %2, ptr %8, align 8
  store ptr %3, ptr %9, align 8
  store i32 %4, ptr %10, align 4
  call void @llvm.lifetime.start.p0(i64 8, ptr %11) #11
  store i8 0, ptr @contains_faststart, align 1
  %12 = load ptr, ptr %6, align 8
  %13 = load i32, ptr %7, align 4
  %14 = load ptr, ptr %8, align 8
  %15 = load ptr, ptr %9, align 8
  %16 = load i32, ptr %10, align 4
  %17 = load i32, ptr @ett_h225_Setup_UUIE, align 4
  %18 = call i32 @dissect_per_sequence(ptr noundef %12, i32 noundef %13, ptr noundef %14, ptr noundef %15, i32 noundef %16, i32 noundef %17, ptr noundef @Setup_UUIE_sequence)
  store i32 %18, ptr %7, align 4
  %19 = load ptr, ptr %8, align 8
  %20 = getelementptr inbounds nuw %struct._asn1_ctx_t, ptr %19, i32 0, i32 3
  %21 = load ptr, ptr %20, align 8
  %22 = getelementptr inbounds nuw %struct._packet_info, ptr %21, i32 0, i32 51
  %23 = load ptr, ptr %22, align 8
  %24 = load ptr, ptr %8, align 8
  %25 = getelementptr inbounds nuw %struct._asn1_ctx_t, ptr %24, i32 0, i32 3
  %26 = load ptr, ptr %25, align 8
  %27 = load i32, ptr @proto_h225, align 4
  %28 = call ptr @p_get_proto_data(ptr noundef %23, ptr noundef %26, i32 noundef %27, i32 noundef 0)
  store ptr %28, ptr %11, align 8
  %29 = load ptr, ptr %11, align 8
  %30 = load i8, ptr @contains_faststart, align 1, !range !23, !noundef !24
  %31 = trunc i8 %30 to i1
  call void @h225_set_cs_type(ptr noundef %29, i32 noundef 0, i1 noundef zeroext %31)
  %32 = load i32, ptr %7, align 4
  call void @llvm.lifetime.end.p0(i64 8, ptr %11) #11
  ret i32 %32
}